(dp1
S'files'
p2
(dp3
S'_usr_local_lib_python2_7_dist-packages__pytest_pastebin'
p4
(dp5
S'index'
p6
(dp7
S'html_filename'
p8
S'_usr_local_lib_python2_7_dist-packages__pytest_pastebin.html'
p9
sS'name'
p10
S'/usr/local/lib/python2.7/dist-packages/_pytest/pastebin'
p11
sS'nums'
p12
ccopy_reg
_reconstructor
p13
(ccoverage.results
Numbers
p14
c__builtin__
object
p15
NtRp16
(dp17
S'n_files'
p18
I1
sS'n_branches'
p19
I0
sS'n_statements'
p20
I56
sS'n_excluded'
p21
I0
sS'n_partial_branches'
p22
I0
sS'n_missing'
p23
I48
sS'n_missing_branches'
p24
I0
sbssS'hash'
p25
S'\xc4$}*\xfd\xb0\x9b\xc5\x10Al=\x1a\x9c4\xf8'
p26
ssS'_usr_local_lib_python2_7_dist-packages_py__builtin'
p27
(dp28
g6
(dp29
g8
S'_usr_local_lib_python2_7_dist-packages_py__builtin.html'
p30
sg10
S'/usr/local/lib/python2.7/dist-packages/py/_builtin'
p31
sg12
g13
(g14
g15
NtRp32
(dp33
g18
I1
sg19
I0
sg20
I188
sg21
I0
sg22
I0
sg23
I145
sg24
I0
sbssg25
S"2\x87\x19\xac\x14H\x9c*'3\x07\x9e<\x1fo\t"
p34
ssS'test_user'
p35
(dp36
g6
(dp37
g8
S'test_user.html'
p38
sg10
g35
sg12
g13
(g14
g15
NtRp39
(dp40
g18
I1
sg19
I0
sg20
I8
sg21
I0
sg22
I0
sg23
I4
sg24
I0
sbssg25
S'%D\x16\x99\xd1\x0cc\x80T\xff\x95sP\xb7\xd9!'
p41
ssS'_usr_local_lib_python2_7_dist-packages__pytest_skipping'
p42
(dp43
g6
(dp44
g8
S'_usr_local_lib_python2_7_dist-packages__pytest_skipping.html'
p45
sg10
S'/usr/local/lib/python2.7/dist-packages/_pytest/skipping'
p46
sg12
g13
(g14
g15
NtRp47
(dp48
g18
I1
sg19
I0
sg20
I212
sg21
I0
sg22
I0
sg23
I174
sg24
I0
sbssg25
S" \xdc\xf3Q\xff\xbc\xf0\x05\x8fMf?\xa4'bj"
p49
ssS'_usr_local_lib_python2_7_dist-packages_py__xmlgen'
p50
(dp51
g6
(dp52
g8
S'_usr_local_lib_python2_7_dist-packages_py__xmlgen.html'
p53
sg10
S'/usr/local/lib/python2.7/dist-packages/py/_xmlgen'
p54
sg12
g13
(g14
g15
NtRp55
(dp56
g18
I1
sg19
I0
sg20
I170
sg21
I0
sg22
I0
sg23
I119
sg24
I0
sbssg25
S'\xffh\xa0j.\xa5t\x8a_\xf8I$9\x9at7'
p57
ssS'_usr_local_lib_python2_7_dist-packages__pytest_core'
p58
(dp59
g6
(dp60
g8
S'_usr_local_lib_python2_7_dist-packages__pytest_core.html'
p61
sg10
S'/usr/local/lib/python2.7/dist-packages/_pytest/core'
p62
sg12
g13
(g14
g15
NtRp63
(dp64
g18
I1
sg19
I0
sg20
I341
sg21
I0
sg22
I0
sg23
I138
sg24
I0
sbssg25
S'\x97\x96\x9b\x8b\\\xf6J\x16\xa6\xf8,\x16\xbe\x1b\xc0\x14'
p65
ssS'_usr_local_lib_python2_7_dist-packages__pytest_resultlog'
p66
(dp67
g6
(dp68
g8
S'_usr_local_lib_python2_7_dist-packages__pytest_resultlog.html'
p69
sg10
S'/usr/local/lib/python2.7/dist-packages/_pytest/resultlog'
p70
sg12
g13
(g14
g15
NtRp71
(dp72
g18
I1
sg19
I0
sg20
I80
sg21
I0
sg22
I0
sg23
I66
sg24
I0
sbssg25
S'\x0cv\xeb.\xaeI\xe4\xb0\x7f\xd1\xddS\xbb\xd3+\xfe'
p73
ssS'_usr_local_lib_python2_7_dist-packages__pytest_mark'
p74
(dp75
g6
(dp76
g8
S'_usr_local_lib_python2_7_dist-packages__pytest_mark.html'
p77
sg10
S'/usr/local/lib/python2.7/dist-packages/_pytest/mark'
p78
sg12
g13
(g14
g15
NtRp79
(dp80
g18
I1
sg19
I0
sg20
I156
sg21
I0
sg22
I0
sg23
I98
sg24
I0
sbssg25
S'\xf5\t\x9cO\xff\xc3\nI\x90AJO\x19\xfe\xc3e'
p81
ssS'_usr_local_lib_python2_7_dist-packages__pytest_monkeypatch'
p82
(dp83
g6
(dp84
g8
S'_usr_local_lib_python2_7_dist-packages__pytest_monkeypatch.html'
p85
sg10
S'/usr/local/lib/python2.7/dist-packages/_pytest/monkeypatch'
p86
sg12
g13
(g14
g15
NtRp87
(dp88
g18
I1
sg19
I0
sg20
I113
sg21
I0
sg22
I0
sg23
I95
sg24
I0
sbssg25
S'(\xb8\xf6]E\xb1\n3|5\xd1\xde2g]\x1d'
p89
ssS'_usr_local_lib_python2_7_dist-packages_py___init__'
p90
(dp91
g6
(dp92
g8
S'_usr_local_lib_python2_7_dist-packages_py___init__.html'
p93
sg10
S'/usr/local/lib/python2.7/dist-packages/py/__init__'
p94
sg12
g13
(g14
g15
NtRp95
(dp96
g18
I1
sg19
I0
sg20
I5
sg21
I0
sg22
I0
sg23
I0
sg24
I0
sbssg25
S'\xe3\x0f\x802\x9f\x98\x1d\xcd\x9dm\xc5/~\xa8\xec\xd9'
p97
ssS'_usr_local_lib_python2_7_dist-packages_py__apipkg'
p98
(dp99
g6
(dp100
g8
S'_usr_local_lib_python2_7_dist-packages_py__apipkg.html'
p101
sg10
S'/usr/local/lib/python2.7/dist-packages/py/_apipkg'
p102
sg12
g13
(g14
g15
NtRp103
(dp104
g18
I1
sg19
I0
sg20
I138
sg21
I0
sg22
I0
sg23
I47
sg24
I0
sbssg25
S'\xac#\xe1\x99c\xbc\x12pj\xb0&\xf3\xc2\xbb~\x11'
p105
ssS'_usr_local_lib_python2_7_dist-packages__pytest_assertion___init__'
p106
(dp107
g6
(dp108
g8
S'_usr_local_lib_python2_7_dist-packages__pytest_assertion___init__.html'
p109
sg10
S'/usr/local/lib/python2.7/dist-packages/_pytest/assertion/__init__'
p110
sg12
g13
(g14
g15
NtRp111
(dp112
g18
I1
sg19
I0
sg20
I78
sg21
I0
sg22
I0
sg23
I58
sg24
I0
sbssg25
S'@\xae\x8c\xd6\x1b3[\x18K\xb7\x9da\x8e\xce\xa6\xf1'
p113
ssS'_usr_local_lib_python2_7_dist-packages_pytest'
p114
(dp115
g6
(dp116
g8
S'_usr_local_lib_python2_7_dist-packages_pytest.html'
p117
sg10
S'/usr/local/lib/python2.7/dist-packages/pytest'
p118
sg12
g13
(g14
g15
NtRp119
(dp120
g18
I1
sg19
I0
sg20
I8
sg21
I0
sg22
I0
sg23
I2
sg24
I0
sbssg25
S'\xd9\xfc\xdf\x95\xb4F\xd1/\xfc\xa0\xa2\xa0\x18\xa1>T'
p121
ssS'_usr_local_lib_python2_7_dist-packages__pytest_capture'
p122
(dp123
g6
(dp124
g8
S'_usr_local_lib_python2_7_dist-packages__pytest_capture.html'
p125
sg10
S'/usr/local/lib/python2.7/dist-packages/_pytest/capture'
p126
sg12
g13
(g14
g15
NtRp127
(dp128
g18
I1
sg19
I0
sg20
I311
sg21
I0
sg22
I0
sg23
I229
sg24
I0
sbssg25
S'\x8c\x91\xddu\xeda\xe5\xd5y\x9b^&\x80\xf7T&'
p129
ssS'_usr_local_lib_python2_7_dist-packages_py__io___init__'
p130
(dp131
g6
(dp132
g8
S'_usr_local_lib_python2_7_dist-packages_py__io___init__.html'
p133
sg10
S'/usr/local/lib/python2.7/dist-packages/py/_io/__init__'
p134
sg12
g13
(g14
g15
NtRp135
(dp136
g18
I1
sg19
I0
sg20
I0
sg21
I0
sg22
I0
sg23
I0
sg24
I0
sbssg25
S'\xcdr\x8d6w\xd3\xfaV9\xe7\xd8i\xae`\x82\xc7'
p137
ssS'_usr_local_lib_python2_7_dist-packages__pytest_junitxml'
p138
(dp139
g6
(dp140
g8
S'_usr_local_lib_python2_7_dist-packages__pytest_junitxml.html'
p141
sg10
S'/usr/local/lib/python2.7/dist-packages/_pytest/junitxml'
p142
sg12
g13
(g14
g15
NtRp143
(dp144
g18
I1
sg19
I0
sg20
I134
sg21
I0
sg22
I0
sg23
I92
sg24
I0
sbssg25
S'\xdb{A\xabg\xd3\x81\xe9gg\xf6+\xef(+\xb5'
p145
ssS'_usr_local_lib_python2_7_dist-packages_py__path___init__'
p146
(dp147
g6
(dp148
g8
S'_usr_local_lib_python2_7_dist-packages_py__path___init__.html'
p149
sg10
S'/usr/local/lib/python2.7/dist-packages/py/_path/__init__'
p150
sg12
g13
(g14
g15
NtRp151
(dp152
g18
I1
sg19
I0
sg20
I0
sg21
I0
sg22
I0
sg23
I0
sg24
I0
sbssg25
S'\xfa\xff\t\xff\xc9\x83\xbd\x0b\x9f\xba\x0c>\x17[\xad\xf1'
p153
ssS'_usr_local_lib_python2_7_dist-packages__pytest_recwarn'
p154
(dp155
g6
(dp156
g8
S'_usr_local_lib_python2_7_dist-packages__pytest_recwarn.html'
p157
sg10
S'/usr/local/lib/python2.7/dist-packages/_pytest/recwarn'
p158
sg12
g13
(g14
g15
NtRp159
(dp160
g18
I1
sg19
I0
sg20
I62
sg21
I0
sg22
I0
sg23
I49
sg24
I0
sbssg25
S'\xfa\x83h\xa6\xfd\x7f]o\x1a\xbc\xc0/6\xf1W]'
p161
ssS'_usr_local_lib_python2_7_dist-packages_py__code___init__'
p162
(dp163
g6
(dp164
g8
S'_usr_local_lib_python2_7_dist-packages_py__code___init__.html'
p165
sg10
S'/usr/local/lib/python2.7/dist-packages/py/_code/__init__'
p166
sg12
g13
(g14
g15
NtRp167
(dp168
g18
I1
sg19
I0
sg20
I0
sg21
I0
sg22
I0
sg23
I0
sg24
I0
sbssg25
S'\x9c\x14*\xf6\xfc\xe3\x9d\xec\x84$\xa5\xe7\xa94\xa7\xfc'
p169
ssS'_usr_local_lib_python2_7_dist-packages__pytest_unittest'
p170
(dp171
g6
(dp172
g8
S'_usr_local_lib_python2_7_dist-packages__pytest_unittest.html'
p173
sg10
S'/usr/local/lib/python2.7/dist-packages/_pytest/unittest'
p174
sg12
g13
(g14
g15
NtRp175
(dp176
g18
I1
sg19
I0
sg20
I142
sg21
I0
sg22
I0
sg23
I113
sg24
I0
sbssg25
S'C\xe8\xe0F#\xe4i%\xb55\xf7\xf6KPcu'
p177
ssS'_usr_local_lib_python2_7_dist-packages__pytest_genscript'
p178
(dp179
g6
(dp180
g8
S'_usr_local_lib_python2_7_dist-packages__pytest_genscript.html'
p181
sg10
S'/usr/local/lib/python2.7/dist-packages/_pytest/genscript'
p182
sg12
g13
(g14
g15
NtRp183
(dp184
g18
I1
sg19
I0
sg20
I78
sg21
I0
sg22
I0
sg23
I59
sg24
I0
sbssg25
S'Q\xe1\xd1\x03S\x12H\x04\x0f\x986\x02\xfd\x87\x1e\x1d'
p185
ssS'_usr_local_lib_python2_7_dist-packages__pytest_assertion_util'
p186
(dp187
g6
(dp188
g8
S'_usr_local_lib_python2_7_dist-packages__pytest_assertion_util.html'
p189
sg10
S'/usr/local/lib/python2.7/dist-packages/_pytest/assertion/util'
p190
sg12
g13
(g14
g15
NtRp191
(dp192
g18
I1
sg19
I0
sg20
I210
sg21
I0
sg22
I0
sg23
I190
sg24
I0
sbssg25
S'\xfc\x93\x91\x91H\x97\xa1~\xce\xc8|\xcbOe^I'
p193
ssS'_usr_local_lib_python2_7_dist-packages__pytest_nose'
p194
(dp195
g6
(dp196
g8
S'_usr_local_lib_python2_7_dist-packages__pytest_nose.html'
p197
sg10
S'/usr/local/lib/python2.7/dist-packages/_pytest/nose'
p198
sg12
g13
(g14
g15
NtRp199
(dp200
g18
I1
sg19
I0
sg20
I42
sg21
I0
sg22
I0
sg23
I31
sg24
I0
sbssg25
S'j\xb1\xa0\xbf\x80q\xd0\xd3\x97\x03\xf4W\xdcM\xc7?'
p201
ssS'_usr_local_lib_python2_7_dist-packages__pytest___init__'
p202
(dp203
g6
(dp204
g8
S'_usr_local_lib_python2_7_dist-packages__pytest___init__.html'
p205
sg10
S'/usr/local/lib/python2.7/dist-packages/_pytest/__init__'
p206
sg12
g13
(g14
g15
NtRp207
(dp208
g18
I1
sg19
I0
sg20
I1
sg21
I0
sg22
I0
sg23
I0
sg24
I0
sbssg25
S'\x1fZ\xabpc\xb3\x0be\xcb\x1f\xc5\xa8oo\xa8P'
p209
ssS'_usr_local_lib_python2_7_dist-packages__pytest_doctest'
p210
(dp211
g6
(dp212
g8
S'_usr_local_lib_python2_7_dist-packages__pytest_doctest.html'
p213
sg10
S'/usr/local/lib/python2.7/dist-packages/_pytest/doctest'
p214
sg12
g13
(g14
g15
NtRp215
(dp216
g18
I1
sg19
I0
sg20
I92
sg21
I0
sg22
I0
sg23
I70
sg24
I0
sbssg25
S'\x92\xcan\xdb\x1a\x07 T\xb6\x9a\x1c\xe0\xed\xe6P\x86'
p217
ssS'_usr_local_lib_python2_7_dist-packages__pytest_pdb'
p218
(dp219
g6
(dp220
g8
S'_usr_local_lib_python2_7_dist-packages__pytest_pdb.html'
p221
sg10
S'/usr/local/lib/python2.7/dist-packages/_pytest/pdb'
p222
sg12
g13
(g14
g15
NtRp223
(dp224
g18
I1
sg19
I0
sg20
I75
sg21
I0
sg22
I0
sg23
I54
sg24
I0
sbssg25
S'\xa45\x8e\xf2\xc6\xd0+\x9b\x1f\xedq6\xef\xa6\x9d\xca'
p225
ssS'_usr_local_lib_python2_7_dist-packages__pytest_runner'
p226
(dp227
g6
(dp228
g8
S'_usr_local_lib_python2_7_dist-packages__pytest_runner.html'
p229
sg10
S'/usr/local/lib/python2.7/dist-packages/_pytest/runner'
p230
sg12
g13
(g14
g15
NtRp231
(dp232
g18
I1
sg19
I0
sg20
I321
sg21
I0
sg22
I0
sg23
I239
sg24
I0
sbssg25
S'M\xa5U\xfdZ"V\x8b\xe6\xbb\xd6\x1b\x0f\xde\xad\x95'
p233
ssS'_usr_local_lib_python2_7_dist-packages_py__path_common'
p234
(dp235
g6
(dp236
g8
S'_usr_local_lib_python2_7_dist-packages_py__path_common.html'
p237
sg10
S'/usr/local/lib/python2.7/dist-packages/py/_path/common'
p238
sg12
g13
(g14
g15
NtRp239
(dp240
g18
I1
sg19
I0
sg20
I244
sg21
I0
sg22
I0
sg23
I182
sg24
I0
sbssg25
S'\xe4\x96Z\xb3\x8e\xdd\x8a\xd2\x8a$\x15\xeb\xf2\xf3c\x05'
p241
ssS'_usr_local_lib_python2_7_dist-packages__pytest_python'
p242
(dp243
g6
(dp244
g8
S'_usr_local_lib_python2_7_dist-packages__pytest_python.html'
p245
sg10
S'/usr/local/lib/python2.7/dist-packages/_pytest/python'
p246
sg12
g13
(g14
g15
NtRp247
(dp248
g18
I1
sg19
I0
sg20
I1284
sg21
I0
sg22
I0
sg23
I1064
sg24
I0
sbssg25
S'n\x8d\xd1R\xbe\xf1??~\x8ar\xcc\x1aC\xd9&'
p249
ssS'_usr_local_lib_python2_7_dist-packages_py__code__py2traceback'
p250
(dp251
g6
(dp252
g8
S'_usr_local_lib_python2_7_dist-packages_py__code__py2traceback.html'
p253
sg10
S'/usr/local/lib/python2.7/dist-packages/py/_code/_py2traceback'
p254
sg12
g13
(g14
g15
NtRp255
(dp256
g18
I1
sg19
I0
sg20
I38
sg21
I0
sg22
I0
sg23
I34
sg24
I0
sbssg25
S'K\x83\xdb\xb0\xbc\xe1zJ\xefk\x05\x86\x16\xff\xf8\xf5'
p257
ssS'_usr_local_lib_python2_7_dist-packages_py__io_capture'
p258
(dp259
g6
(dp260
g8
S'_usr_local_lib_python2_7_dist-packages_py__io_capture.html'
p261
sg10
S'/usr/local/lib/python2.7/dist-packages/py/_io/capture'
p262
sg12
g13
(g14
g15
NtRp263
(dp264
g18
I1
sg19
I0
sg20
I266
sg21
I0
sg22
I0
sg23
I214
sg24
I0
sbssg25
S'\xa5\xabw<\xfc\xc5+\xd9\xeb\x1f\xb3CCX\x98\x1c'
p265
ssS'_usr_local_lib_python2_7_dist-packages__pytest_tmpdir'
p266
(dp267
g6
(dp268
g8
S'_usr_local_lib_python2_7_dist-packages__pytest_tmpdir.html'
p269
sg10
S'/usr/local/lib/python2.7/dist-packages/_pytest/tmpdir'
p270
sg12
g13
(g14
g15
NtRp271
(dp272
g18
I1
sg19
I0
sg20
I47
sg21
I0
sg22
I0
sg23
I35
sg24
I0
sbssg25
S"\xb3\x00\xf3\xd2\n{\xa9\x1c\xbco4\x02\x0c '\xbf"
p273
ssS'_usr_local_lib_python2_7_dist-packages__pytest_main'
p274
(dp275
g6
(dp276
g8
S'_usr_local_lib_python2_7_dist-packages__pytest_main.html'
p277
sg10
S'/usr/local/lib/python2.7/dist-packages/_pytest/main'
p278
sg12
g13
(g14
g15
NtRp279
(dp280
g18
I1
sg19
I0
sg20
I501
sg21
I0
sg22
I0
sg23
I382
sg24
I0
sbssg25
S')\xac\xe0KJg\xda\xe3H\x0b\xcd\x86:{L\x9b'
p281
ssS'_usr_local_lib_python2_7_dist-packages__pytest_terminal'
p282
(dp283
g6
(dp284
g8
S'_usr_local_lib_python2_7_dist-packages__pytest_terminal.html'
p285
sg10
S'/usr/local/lib/python2.7/dist-packages/_pytest/terminal'
p286
sg12
g13
(g14
g15
NtRp287
(dp288
g18
I1
sg19
I0
sg20
I408
sg21
I0
sg22
I0
sg23
I347
sg24
I0
sbssg25
S'\xc1\r\x15\xa9\xdd\xfdY\xe2\xe8\xa6\x84<Ok\x0c8'
p289
ssS'_usr_local_lib_python2_7_dist-packages_py__code_code'
p290
(dp291
g6
(dp292
g8
S'_usr_local_lib_python2_7_dist-packages_py__code_code.html'
p293
sg10
S'/usr/local/lib/python2.7/dist-packages/py/_code/code'
p294
sg12
g13
(g14
g15
NtRp295
(dp296
g18
I1
sg19
I0
sg20
I523
sg21
I0
sg22
I0
sg23
I408
sg24
I0
sbssg25
S'\x0b\x18_\xccQ\xafT<\xe9(\xa2\x07\xf6\xdaK\xef'
p297
ssS'_usr_local_lib_python2_7_dist-packages__pytest_config'
p298
(dp299
g6
(dp300
g8
S'_usr_local_lib_python2_7_dist-packages__pytest_config.html'
p301
sg10
S'/usr/local/lib/python2.7/dist-packages/_pytest/config'
p302
sg12
g13
(g14
g15
NtRp303
(dp304
g18
I1
sg19
I0
sg20
I603
sg21
I0
sg22
I0
sg23
I385
sg24
I0
sbssg25
S'\xb8\x8b\x0b~\\\x8a\xb7\xbbX\x81*:\x01O\x9f\x0c'
p305
ssS'_usr_local_lib_python2_7_dist-packages__pytest_helpconfig'
p306
(dp307
g6
(dp308
g8
S'_usr_local_lib_python2_7_dist-packages__pytest_helpconfig.html'
p309
sg10
S'/usr/local/lib/python2.7/dist-packages/_pytest/helpconfig'
p310
sg12
g13
(g14
g15
NtRp311
(dp312
g18
I1
sg19
I0
sg20
I133
sg21
I0
sg22
I0
sg23
I85
sg24
I0
sbssg25
S'\x92g\x05\xb8hz\x10\xab\x15`\xab\xe1\x15;\xbe\xed'
p313
ssS'_usr_local_lib_python2_7_dist-packages__pytest_hookspec'
p314
(dp315
g6
(dp316
g8
S'_usr_local_lib_python2_7_dist-packages__pytest_hookspec.html'
p317
sg10
S'/usr/local/lib/python2.7/dist-packages/_pytest/hookspec'
p318
sg12
g13
(g14
g15
NtRp319
(dp320
g18
I1
sg19
I0
sg20
I60
sg21
I0
sg22
I0
sg23
I0
sg24
I0
sbssg25
S'mz\n\n~\xb6EWqL{\xb0\x87\xc2\xe8\xc3'
p321
ssS'_usr_local_lib_python2_7_dist-packages_py__path_local'
p322
(dp323
g6
(dp324
g8
S'_usr_local_lib_python2_7_dist-packages_py__path_local.html'
p325
sg10
S'/usr/local/lib/python2.7/dist-packages/py/_path/local'
p326
sg12
g13
(g14
g15
NtRp327
(dp328
g18
I1
sg19
I0
sg20
I627
sg21
I0
sg22
I0
sg23
I493
sg24
I0
sbssg25
S'O\xf1\x12\x1e\xcf\x11@c\\\xd9\x1b\xf9\x82_sd'
p329
sssS'version'
p330
S'4.0a1'
p331
sS'settings'
p332
S'\x87\x9cc8\x80\xe5\x97\xb16\xfcv\xa2\x8d\x8a\xbb\xcf'
p333
sS'format'
p334
I1
s.